target datalayout = "e-m:e-p270:32:32-p271:32:32-p272:64:64-i64:64-i128:128-f80:128-n8:16:32:64-S128"
target triple = "x86_64-pc-linux-gnu"

; Function Attrs: nounwind uwtable
define internal double @trc_bt1361_inv(double noundef %0) #0 {
  %2 = alloca double, align 8
  %3 = alloca double, align 8
  %4 = alloca double, align 8
  store double %0, ptr %2, align 8, !tbaa !27
  call void @llvm.lifetime.start.p0(i64 8, ptr %3) #7
  store double 0x3FF196B844FBE3DC, ptr %3, align 8, !tbaa !27
  call void @llvm.lifetime.start.p0(i64 8, ptr %4) #7
  store double 0x3FB4CC54FB6D1A6E, ptr %4, align 8, !tbaa !27
  %5 = load double, ptr %2, align 8, !tbaa !27
  %6 = fcmp nsz oge double -2.025000e-02, %5
  br i1 %6, label %7, label %14

7:                                                ; preds = %1
  %8 = load double, ptr %2, align 8, !tbaa !27
  %9 = call nsz double @llvm.fmuladd.f64(double -4.000000e+00, double %8, double 0xBFB96B844FBE3DC0)
  %10 = fdiv nsz double %9, 0x3FF196B844FBE3DC
  %11 = call nsz double @llvm.pow.f64(double %10, double 0x4001C71C71C71C72)
  %12 = fneg nsz double %11
  %13 = fdiv nsz double %12, 4.000000e+00
  br label %27

14:                                               ; preds = %1
  %15 = load double, ptr %2, align 8, !tbaa !27
  %16 = fcmp nsz ogt double 0x3FB4CC54FB6D1A6E, %15
  br i1 %16, label %17, label %20

17:                                               ; preds = %14
  %18 = load double, ptr %2, align 8, !tbaa !27
  %19 = fdiv nsz double %18, 4.500000e+00
  br label %25

20:                                               ; preds = %14
  %21 = load double, ptr %2, align 8, !tbaa !27
  %22 = fadd nsz double %21, 0x3FB96B844FBE3DC0
  %23 = fdiv nsz double %22, 0x3FF196B844FBE3DC
  %24 = call nsz double @llvm.pow.f64(double %23, double 0x4001C71C71C71C72)
  br label %25

25:                                               ; preds = %20, %17
  %26 = phi nsz double [ %19, %17 ], [ %24, %20 ]
  br label %27

27:                                               ; preds = %25, %7
  %28 = phi nsz double [ %13, %7 ], [ %26, %25 ]
  call void @llvm.lifetime.end.p0(i64 8, ptr %4) #7
  call void @llvm.lifetime.end.p0(i64 8, ptr %3) #7
  ret double %28
}