; Function Attrs: mustprogress nofree norecurse nosync nounwind willreturn memory(none) uwtable
define internal noundef double @trc_bt1361_inv(double noundef %0) #0 {
  %2 = fcmp nsz ugt double %0, -2.025000e-02
  br i1 %2, label %8, label %3

3:                                                ; preds = %1
  %4 = tail call nsz double @llvm.fmuladd.f64(double %0, double -4.000000e+00, double 0xBFB96B844FBE3DC0)
  %5 = fdiv nsz double %4, 0x3FF196B844FBE3DC
  %6 = tail call nsz double @llvm.pow.f64(double %5, double 0x4001C71C71C71C72)
  %7 = fmul nsz double %6, -2.500000e-01
  br label %16

8:                                                ; preds = %1
  %9 = fcmp nsz olt double %0, 0x3FB4CC54FB6D1A6E
  br i1 %9, label %10, label %12

10:                                               ; preds = %8
  %11 = fdiv nsz double %0, 4.500000e+00
  br label %16

12:                                               ; preds = %8
  %13 = fadd nsz double %0, 0x3FB96B844FBE3DC0
  %14 = fdiv nsz double %13, 0x3FF196B844FBE3DC
  %15 = tail call nsz double @llvm.pow.f64(double %14, double 0x4001C71C71C71C72)
  br label %16

16:                                               ; preds = %10, %12, %3
  %17 = phi nsz double [ %7, %3 ], [ %11, %10 ], [ %15, %12 ]
  ret double %17
}